target datalayout = "e-m:e-p270:32:32-p271:32:32-p272:64:64-i64:64-i128:128-f80:128-n8:16:32:64-S128"
target triple = "x86_64-pc-linux-gnu"

%struct.ec_key_st = type { ptr, ptr, i32, ptr, ptr, ptr, i32, i32, %struct.CRYPTO_REF_COUNT, i32, %struct.crypto_ex_data_st, ptr, ptr, i64 }
%struct.CRYPTO_REF_COUNT = type { i32 }
%struct.crypto_ex_data_st = type { ptr, ptr }

@.str.2 = private unnamed_addr constant [31 x i8] c"../openssl/crypto/ec/ec_asn1.c\00", align 1
@__func__.i2d_ECParameters = private unnamed_addr constant [17 x i8] c"i2d_ECParameters\00", align 1

; Function Attrs: nounwind uwtable
define i32 @i2d_ECParameters(ptr noundef %0, ptr noundef %1) #0 {
  %3 = alloca i32, align 4
  %4 = alloca ptr, align 8
  %5 = alloca ptr, align 8
  store ptr %0, ptr %4, align 8, !tbaa !81
  store ptr %1, ptr %5, align 8, !tbaa !14
  %6 = load ptr, ptr %4, align 8, !tbaa !81
  %7 = icmp eq ptr %6, null
  br i1 %7, label %8, label %9

8:                                                ; preds = %2
  call void @ERR_new()
  call void @ERR_set_debug(ptr noundef @.str.2, i32 noundef 1091, ptr noundef @__func__.i2d_ECParameters)
  call void (i32, i32, ptr, ...) @ERR_set_error(i32 noundef 16, i32 noundef 786690, ptr noundef null)
  store i32 0, ptr %3, align 4
  br label %15

9:                                                ; preds = %2
  %10 = load ptr, ptr %4, align 8, !tbaa !81
  %11 = getelementptr inbounds nuw %struct.ec_key_st, ptr %10, i32 0, i32 3
  %12 = load ptr, ptr %11, align 8, !tbaa !85
  %13 = load ptr, ptr %5, align 8, !tbaa !14
  %14 = call i32 @i2d_ECPKParameters(ptr noundef %12, ptr noundef %13)
  store i32 %14, ptr %3, align 4
  br label %15

15:                                               ; preds = %9, %8
  %16 = load i32, ptr %3, align 4
  ret i32 %16
}